(dp0
S'key_up_events'
p1
(lp2
(lp3
S'p'
p4
aI1473813059040
aa(lp5
S'a'
p6
aI1473813059216
aa(lp7
S's'
p8
aI1473813059416
aa(lp9
g8
aI1473813059592
aa(lp10
S'w'
p11
aI1473813059888
aa(lp12
S'o'
p13
aI1473813060112
aa(lp14
S'r'
p15
aI1473813060316
aa(lp16
S'd'
p17
aI1473813060552
aa(lp18
S'space'
p19
aI1473813061056
aasS'key_down_events'
p20
(lp21
(lp22
g4
aI1473813058937
aa(lp23
g6
aI1473813059072
aa(lp24
g8
aI1473813059336
aa(lp25
g8
aI1473813059496
aa(lp26
g11
aI1473813059809
aa(lp27
g13
aI1473813060024
aa(lp28
g15
aI1473813060184
aa(lp29
g17
aI1473813060456
aa(lp30
S'space'
p31
aI1473813060969
aas.