(dp0
S'key_up_events'
p1
(lp2
(lp3
S'p'
p4
aI1473813035177
aa(lp5
S'a'
p6
aI1473813035385
aa(lp7
S's'
p8
aI1473813035569
aa(lp9
g8
aI1473813035761
aa(lp10
S'w'
p11
aI1473813036401
aa(lp12
S'o'
p13
aI1473813036798
aa(lp14
S'r'
p15
aI1473813037097
aa(lp16
S'd'
p17
aI1473813037344
aa(lp18
S'space'
p19
aI1473813037881
aasS'key_down_events'
p20
(lp21
(lp22
g4
aI1473813035090
aa(lp23
g6
aI1473813035226
aa(lp24
g8
aI1473813035490
aa(lp25
g8
aI1473813035650
aa(lp26
g11
aI1473813036314
aa(lp27
g13
aI1473813036714
aa(lp28
g15
aI1473813037002
aa(lp29
g17
aI1473813037258
aa(lp30
S'space'
p31
aI1473813037802
aas.