(dp0
S'key_up_events'
p1
(lp2
(lp3
S'p'
p4
aI1473813065824
aa(lp5
S'a'
p6
aI1473813066191
aa(lp7
S's'
p8
aI1473813066423
aa(lp9
g8
aI1473813066608
aa(lp10
S'w'
p11
aI1473813067088
aa(lp12
S'o'
p13
aI1473813067447
aa(lp14
S'r'
p15
aI1473813067583
aa(lp16
S'd'
p17
aI1473813067903
aa(lp18
S'space'
p19
aI1473813068847
aasS'key_down_events'
p20
(lp21
(lp22
g4
aI1473813065720
aa(lp23
g6
aI1473813066072
aa(lp24
g8
aI1473813066376
aa(lp25
g8
aI1473813066512
aa(lp26
g11
aI1473813067008
aa(lp27
g13
aI1473813067336
aa(lp28
g15
aI1473813067480
aa(lp29
g17
aI1473813067768
aa(lp30
S'space'
p31
aI1473813068744
aas.