(dp0
S'key_up_events'
p1
(lp2
(lp3
S'p'
p4
aI1473811919553
aa(lp5
S'a'
p6
aI1473811919584
aa(lp7
S's'
p8
aI1473811919745
aa(lp9
g8
aI1473811919897
aa(lp10
S'w'
p11
aI1473811920064
aa(lp12
S'o'
p13
aI1473811920160
aa(lp14
S'r'
p15
aI1473811920241
aa(lp16
S'd'
p17
aI1473811920424
aa(lp18
S'space'
p19
aI1473811920456
aasS'key_down_events'
p20
(lp21
(lp22
g4
aI1473811919450
aa(lp23
g6
aI1473811919556
aa(lp24
g8
aI1473811919697
aa(lp25
g8
aI1473811919858
aa(lp26
g11
aI1473811920009
aa(lp27
g13
aI1473811920089
aa(lp28
g15
aI1473811920177
aa(lp29
g17
aI1473811920329
aa(lp30
S'space'
p31
aI1473811920393
aas.